; Function Attrs: mustprogress nofree norecurse nosync nounwind willreturn memory(read, inaccessiblemem: none) uwtable
define hidden noundef zeroext i1 @_ZNK3euf5enode18children_are_rootsEv(ptr noundef nonnull readonly align 8 captures(address) dereferenceable(176) %0) local_unnamed_addr #5 align 2 {
  %2 = getelementptr inbounds nuw i8, ptr %0, i64 152
  %3 = load i32, ptr %2, align 8, !tbaa !32
  %4 = zext i32 %3 to i64
  %.idx = shl nuw nsw i64 %4, 3
  %5 = getelementptr inbounds nuw i8, ptr %0, i64 %.idx
  %.ptr19 = getelementptr inbounds nuw i8, ptr %5, i64 176
  %.not14 = icmp eq i32 %3, 0
  br i1 %.not14, label %._crit_edge, label %.lr.ph.preheader

.lr.ph.preheader:                                 ; preds = %1
  %.ptr = getelementptr inbounds nuw i8, ptr %0, i64 176
  br label %.lr.ph

.lr.ph:                                           ; preds = %.lr.ph, %.lr.ph.preheader
  %.01215 = phi ptr [ %.ptr, %.lr.ph.preheader ], [ %10, %.lr.ph ]
  %6 = load ptr, ptr %.01215, align 8, !tbaa !28
  %7 = getelementptr inbounds nuw i8, ptr %6, i64 64
  %8 = load ptr, ptr %7, align 8, !tbaa !3
  %9 = icmp eq ptr %8, %6
  %10 = getelementptr inbounds nuw i8, ptr %.01215, i64 8
  %.not = icmp ne ptr %10, %.ptr19
  %or.cond.not = select i1 %9, i1 %.not, i1 false
  br i1 %or.cond.not, label %.lr.ph, label %._crit_edge

._crit_edge:                                      ; preds = %.lr.ph, %1
  %.not.lcssa = phi i1 [ true, %1 ], [ %9, %.lr.ph ]
  ret i1 %.not.lcssa
}